; Function Attrs: mustprogress uwtable
define hidden void @_ZN3opt15model_based_opt3subEjRK8rational(ptr noundef nonnull readonly align 8 captures(none) dereferenceable(112) %0, i32 noundef %1, ptr noundef nonnull align 8 dereferenceable(32) %2) local_unnamed_addr #3 align 2 {
  %4 = load ptr, ptr %0, align 8, !tbaa !53
  %5 = zext i32 %1 to i64
  %6 = getelementptr inbounds nuw %"struct.opt::model_based_opt::row", ptr %4, i64 %5
  %7 = getelementptr inbounds nuw i8, ptr %6, i64 8
  %8 = load ptr, ptr @_ZN8rational13g_mpq_managerE, align 8, !tbaa !11
  %9 = getelementptr inbounds nuw i8, ptr %6, i64 24
  %10 = getelementptr inbounds nuw i8, ptr %6, i64 28
  %11 = load i8, ptr %10, align 4
  %12 = and i8 %11, 1
  %13 = icmp eq i8 %12, 0
  %14 = load i32, ptr %9, align 8
  %15 = icmp eq i32 %14, 1
  %16 = select i1 %13, i1 %15, i1 false
  br i1 %16, label %17, label %29

17:                                               ; preds = %3
  %18 = getelementptr inbounds nuw i8, ptr %2, i64 16
  %19 = getelementptr inbounds nuw i8, ptr %2, i64 20
  %20 = load i8, ptr %19, align 4
  %21 = and i8 %20, 1
  %22 = icmp eq i8 %21, 0
  %23 = load i32, ptr %18, align 8
  %24 = icmp eq i32 %23, 1
  %25 = select i1 %22, i1 %24, i1 false
  br i1 %25, label %26, label %29

26:                                               ; preds = %17
  tail call void @_ZN11mpz_managerILb1EE3subERK3mpzS3_RS1_(ptr noundef nonnull align 8 dereferenceable(728) %8, ptr noundef nonnull align 8 dereferenceable(32) %7, ptr noundef nonnull align 8 dereferenceable(32) %2, ptr noundef nonnull align 8 dereferenceable(32) %7)
  tail call void @_ZN11mpz_managerILb1EE3delEPS0_R3mpz(ptr noundef nonnull align 8 dereferenceable(728) %8, ptr noundef nonnull align 8 dereferenceable(16) %9)
  store i32 1, ptr %9, align 8, !tbaa !10
  %27 = load i8, ptr %10, align 4
  %28 = and i8 %27, -2
  store i8 %28, ptr %10, align 4
  br label %_ZN8rationalmIERKS_.exit

29:                                               ; preds = %17, %3
  tail call void @_ZN11mpq_managerILb1EE7rat_subERK3mpqS3_RS1_(ptr noundef nonnull align 8 dereferenceable(728) %8, ptr noundef nonnull align 8 dereferenceable(32) %7, ptr noundef nonnull align 8 dereferenceable(32) %2, ptr noundef nonnull align 8 dereferenceable(32) %7)
  br label %_ZN8rationalmIERKS_.exit

_ZN8rationalmIERKS_.exit:                         ; preds = %26, %29
  %30 = getelementptr inbounds nuw i8, ptr %6, i64 80
  %31 = load ptr, ptr @_ZN8rational13g_mpq_managerE, align 8, !tbaa !11
  %32 = getelementptr inbounds nuw i8, ptr %6, i64 96
  %33 = getelementptr inbounds nuw i8, ptr %6, i64 100
  %34 = load i8, ptr %33, align 4
  %35 = and i8 %34, 1
  %36 = icmp eq i8 %35, 0
  %37 = load i32, ptr %32, align 8
  %38 = icmp eq i32 %37, 1
  %39 = select i1 %36, i1 %38, i1 false
  br i1 %39, label %40, label %52

40:                                               ; preds = %_ZN8rationalmIERKS_.exit
  %41 = getelementptr inbounds nuw i8, ptr %2, i64 16
  %42 = getelementptr inbounds nuw i8, ptr %2, i64 20
  %43 = load i8, ptr %42, align 4
  %44 = and i8 %43, 1
  %45 = icmp eq i8 %44, 0
  %46 = load i32, ptr %41, align 8
  %47 = icmp eq i32 %46, 1
  %48 = select i1 %45, i1 %47, i1 false
  br i1 %48, label %49, label %52

49:                                               ; preds = %40
  tail call void @_ZN11mpz_managerILb1EE3subERK3mpzS3_RS1_(ptr noundef nonnull align 8 dereferenceable(728) %31, ptr noundef nonnull align 8 dereferenceable(32) %30, ptr noundef nonnull align 8 dereferenceable(32) %2, ptr noundef nonnull align 8 dereferenceable(32) %30)
  tail call void @_ZN11mpz_managerILb1EE3delEPS0_R3mpz(ptr noundef nonnull align 8 dereferenceable(728) %31, ptr noundef nonnull align 8 dereferenceable(16) %32)
  store i32 1, ptr %32, align 8, !tbaa !10
  %50 = load i8, ptr %33, align 4
  %51 = and i8 %50, -2
  store i8 %51, ptr %33, align 4
  br label %_ZN8rationalmIERKS_.exit5

52:                                               ; preds = %40, %_ZN8rationalmIERKS_.exit
  tail call void @_ZN11mpq_managerILb1EE7rat_subERK3mpqS3_RS1_(ptr noundef nonnull align 8 dereferenceable(728) %31, ptr noundef nonnull align 8 dereferenceable(32) %30, ptr noundef nonnull align 8 dereferenceable(32) %2, ptr noundef nonnull align 8 dereferenceable(32) %30)
  br label %_ZN8rationalmIERKS_.exit5

_ZN8rationalmIERKS_.exit5:                        ; preds = %49, %52
  ret void
}